; Function Attrs: mustprogress nofree norecurse nosync nounwind willreturn memory(argmem: read) uwtable
define noundef i64 @_ZNK5boost4urls6detail8url_impl3lenEii(ptr nocapture noundef nonnull readonly align 8 dereferenceable(171) %0, i32 noundef %1, i32 noundef %2) local_unnamed_addr #4 align 2 {
  %4 = icmp eq i32 %2, -1
  br i1 %4, label %_ZNK5boost4urls6detail8url_impl6offsetEi.exit, label %5

5:                                                ; preds = %3
  %6 = getelementptr inbounds nuw i8, ptr %0, i64 8
  %7 = sext i32 %2 to i64
  %8 = getelementptr inbounds [8 x i64], ptr %6, i64 0, i64 %7
  %9 = load i64, ptr %8, align 8, !tbaa !13
  br label %_ZNK5boost4urls6detail8url_impl6offsetEi.exit

_ZNK5boost4urls6detail8url_impl6offsetEi.exit:    ; preds = %3, %5
  %10 = phi i64 [ %9, %5 ], [ 0, %3 ]
  %11 = icmp eq i32 %1, -1
  br i1 %11, label %_ZNK5boost4urls6detail8url_impl6offsetEi.exit2, label %12

12:                                               ; preds = %_ZNK5boost4urls6detail8url_impl6offsetEi.exit
  %13 = getelementptr inbounds nuw i8, ptr %0, i64 8
  %14 = sext i32 %1 to i64
  %15 = getelementptr inbounds [8 x i64], ptr %13, i64 0, i64 %14
  %16 = load i64, ptr %15, align 8, !tbaa !13
  br label %_ZNK5boost4urls6detail8url_impl6offsetEi.exit2

_ZNK5boost4urls6detail8url_impl6offsetEi.exit2:   ; preds = %_ZNK5boost4urls6detail8url_impl6offsetEi.exit, %12
  %17 = phi i64 [ %16, %12 ], [ 0, %_ZNK5boost4urls6detail8url_impl6offsetEi.exit ]
  %18 = sub i64 %10, %17
  ret i64 %18
}